; Function Attrs: mustprogress nofree norecurse nosync nounwind willreturn memory(argmem: read) uwtable
define zeroext i8 @png_get_compression_type(ptr noalias noundef readnone %0, ptr noalias noundef readonly %1) local_unnamed_addr #0 {
  %3 = icmp ne ptr %0, null
  %4 = icmp ne ptr %1, null
  %or.cond = and i1 %3, %4
  br i1 %or.cond, label %5, label %8

5:                                                ; preds = %2
  %6 = getelementptr inbounds i8, ptr %1, i64 38
  %7 = load i8, ptr %6, align 2
  br label %8

8:                                                ; preds = %2, %5
  %.0 = phi i8 [ %7, %5 ], [ 0, %2 ]
  ret i8 %.0
}